target datalayout = "e-m:e-p270:32:32-p271:32:32-p272:64:64-i64:64-i128:128-f80:128-n8:16:32:64-S128"
target triple = "x86_64-pc-linux-gnu"

%struct.b2Vec2 = type { float, float }
%struct.b2MassData = type { float, %struct.b2Vec2, float }
%struct.b2Circle = type { %struct.b2Vec2, float }

; Function Attrs: inlinehint nounwind uwtable
define internal float @b2Dot(<2 x float> %0, <2 x float> %1) #6 {
  %3 = alloca %struct.b2Vec2, align 4
  %4 = alloca %struct.b2Vec2, align 4
  store <2 x float> %0, ptr %3, align 4
  store <2 x float> %1, ptr %4, align 4
  %5 = getelementptr inbounds nuw %struct.b2Vec2, ptr %3, i32 0, i32 0
  %6 = load float, ptr %5, align 4, !tbaa !30
  %7 = getelementptr inbounds nuw %struct.b2Vec2, ptr %4, i32 0, i32 0
  %8 = load float, ptr %7, align 4, !tbaa !30
  %9 = fmul float %6, %8
  %10 = getelementptr inbounds nuw %struct.b2Vec2, ptr %3, i32 0, i32 1
  %11 = load float, ptr %10, align 4, !tbaa !31
  %12 = getelementptr inbounds nuw %struct.b2Vec2, ptr %4, i32 0, i32 1
  %13 = load float, ptr %12, align 4, !tbaa !31
  %14 = fmul float %11, %13
  %15 = fadd float %9, %14
  ret float %15
}

; Function Attrs: nounwind uwtable
define { <2 x float>, <2 x float> } @b2ComputeCircleMass(ptr noundef %0, float noundef %1) #0 {
  %3 = alloca %struct.b2MassData, align 4
  %4 = alloca ptr, align 8
  %5 = alloca float, align 4
  %6 = alloca float, align 4
  store ptr %0, ptr %4, align 8, !tbaa !50
  store float %1, ptr %5, align 4, !tbaa !12
  call void @llvm.lifetime.start.p0(i64 4, ptr %6) #9
  %7 = load ptr, ptr %4, align 8, !tbaa !50
  %8 = getelementptr inbounds nuw %struct.b2Circle, ptr %7, i32 0, i32 1
  %9 = load float, ptr %8, align 4, !tbaa !52
  %10 = load ptr, ptr %4, align 8, !tbaa !50
  %11 = getelementptr inbounds nuw %struct.b2Circle, ptr %10, i32 0, i32 1
  %12 = load float, ptr %11, align 4, !tbaa !52
  %13 = fmul float %9, %12
  store float %13, ptr %6, align 4, !tbaa !12
  %14 = load float, ptr %5, align 4, !tbaa !12
  %15 = fmul float %14, 0x400921FB60000000
  %16 = load float, ptr %6, align 4, !tbaa !12
  %17 = fmul float %15, %16
  %18 = getelementptr inbounds nuw %struct.b2MassData, ptr %3, i32 0, i32 0
  store float %17, ptr %18, align 4, !tbaa !54
  %19 = getelementptr inbounds nuw %struct.b2MassData, ptr %3, i32 0, i32 1
  %20 = load ptr, ptr %4, align 8, !tbaa !50
  %21 = getelementptr inbounds nuw %struct.b2Circle, ptr %20, i32 0, i32 0
  call void @llvm.memcpy.p0.p0.i64(ptr align 4 %19, ptr align 4 %21, i64 8, i1 false), !tbaa.struct !26
  %22 = getelementptr inbounds nuw %struct.b2MassData, ptr %3, i32 0, i32 0
  %23 = load float, ptr %22, align 4, !tbaa !54
  %24 = load float, ptr %6, align 4, !tbaa !12
  %25 = fmul float 5.000000e-01, %24
  %26 = load ptr, ptr %4, align 8, !tbaa !50
  %27 = getelementptr inbounds nuw %struct.b2Circle, ptr %26, i32 0, i32 0
  %28 = load ptr, ptr %4, align 8, !tbaa !50
  %29 = getelementptr inbounds nuw %struct.b2Circle, ptr %28, i32 0, i32 0
  %30 = load <2 x float>, ptr %27, align 4
  %31 = load <2 x float>, ptr %29, align 4
  %32 = call float @b2Dot(<2 x float> %30, <2 x float> %31)
  %33 = fadd float %25, %32
  %34 = fmul float %23, %33
  %35 = getelementptr inbounds nuw %struct.b2MassData, ptr %3, i32 0, i32 2
  store float %34, ptr %35, align 4, !tbaa !56
  call void @llvm.lifetime.end.p0(i64 4, ptr %6) #9
  %36 = load { <2 x float>, <2 x float> }, ptr %3, align 4
  ret { <2 x float>, <2 x float> } %36
}