; Function Attrs: mustprogress nofree norecurse nosync nounwind willreturn memory(argmem: read) uwtable
define { <2 x float>, <2 x float> } @b2ComputeCircleMass(ptr noundef readonly captures(none) %0, float noundef %1) local_unnamed_addr #8 {
  %3 = getelementptr inbounds nuw i8, ptr %0, i64 8
  %4 = load float, ptr %3, align 4, !tbaa !42
  %5 = fmul float %4, %4
  %6 = fmul float %1, 0x400921FB60000000
  %7 = fmul float %6, %5
  %.sroa.0.0.vec.insert = insertelement <2 x float> poison, float %7, i64 0
  %.sroa.0.4.copyload = load float, ptr %0, align 4, !tbaa !9
  %.sroa.0.4.vec.insert = insertelement <2 x float> %.sroa.0.0.vec.insert, float %.sroa.0.4.copyload, i64 1
  %.sroa.4.4..sroa_idx = getelementptr inbounds nuw i8, ptr %0, i64 4
  %.sroa.4.4.copyload = load float, ptr %.sroa.4.4..sroa_idx, align 4, !tbaa !9
  %.sroa.4.4.vec.insert = insertelement <2 x float> poison, float %.sroa.4.4.copyload, i64 0
  %8 = fmul float %5, 5.000000e-01
  %9 = load <2 x float>, ptr %0, align 4
  %10 = fmul <2 x float> %9, %9
  %11 = fmul <2 x float> %9, %9
  %shift = shufflevector <2 x float> %11, <2 x float> poison, <2 x i32> <i32 1, i32 poison>
  %12 = fadd <2 x float> %10, %shift
  %13 = extractelement <2 x float> %12, i64 0
  %14 = fadd float %8, %13
  %15 = fmul float %7, %14
  %.sroa.4.12.vec.insert = insertelement <2 x float> %.sroa.4.4.vec.insert, float %15, i64 1
  %.fca.0.insert = insertvalue { <2 x float>, <2 x float> } poison, <2 x float> %.sroa.0.4.vec.insert, 0
  %.fca.1.insert = insertvalue { <2 x float>, <2 x float> } %.fca.0.insert, <2 x float> %.sroa.4.12.vec.insert, 1
  ret { <2 x float>, <2 x float> } %.fca.1.insert
}